target datalayout = "e-m:e-p270:32:32-p271:32:32-p272:64:64-i64:64-i128:128-f80:128-n8:16:32:64-S128"
target triple = "x86_64-pc-linux-gnu"

%struct.depend_spec = type { i32, i16, i16, i32, i32, i32, ptr, i64 }

; Function Attrs: nounwind uwtable
define internal i32 @_init_dep_job_ptr(ptr noundef %0, ptr noundef %1) #0 {
  %3 = alloca ptr, align 8
  %4 = alloca ptr, align 8
  %5 = alloca ptr, align 8
  store ptr %0, ptr %3, align 8
  store ptr %1, ptr %4, align 8
  call void @llvm.lifetime.start.p0(i64 8, ptr %5) #11
  %6 = load ptr, ptr %3, align 8
  store ptr %6, ptr %5, align 8
  %7 = load ptr, ptr %5, align 8
  %8 = getelementptr inbounds nuw %struct.depend_spec, ptr %7, i32 0, i32 5
  %9 = load i32, ptr %8, align 8
  %10 = load ptr, ptr %5, align 8
  %11 = getelementptr inbounds nuw %struct.depend_spec, ptr %10, i32 0, i32 0
  %12 = load i32, ptr %11, align 8
  %13 = call ptr @find_job_array_rec(i32 noundef %9, i32 noundef %12)
  %14 = load ptr, ptr %5, align 8
  %15 = getelementptr inbounds nuw %struct.depend_spec, ptr %14, i32 0, i32 6
  store ptr %13, ptr %15, align 8
  call void @llvm.lifetime.end.p0(i64 8, ptr %5) #11
  ret i32 0
}