; Function Attrs: nounwind uwtable
define internal noundef i32 @_init_dep_job_ptr(ptr noundef captures(none) initializes((24, 32)) %0, ptr readnone captures(none) %1) #6 {
  %3 = getelementptr inbounds nuw i8, ptr %0, i64 16
  %4 = load i32, ptr %3, align 8
  %5 = load i32, ptr %0, align 8
  %6 = tail call ptr @find_job_array_rec(i32 noundef %4, i32 noundef %5) #19
  %7 = getelementptr inbounds nuw i8, ptr %0, i64 24
  store ptr %6, ptr %7, align 8
  ret i32 0
}